target datalayout = "e-m:e-p270:32:32-p271:32:32-p272:64:64-i64:64-i128:128-f80:128-n8:16:32:64-S128"
target triple = "x86_64-pc-linux-gnu"

%struct.H5L_class_t = type { i32, i32, ptr, ptr, ptr, ptr, ptr, ptr, ptr }

@H5L_table_g = internal global ptr null, align 8
@H5L_table_used_g = internal global i64 0, align 8

; Function Attrs: nounwind uwtable
define i32 @H5L_is_registered(i32 noundef %0, ptr noundef %1) #0 {
  %3 = alloca i32, align 4
  %4 = alloca ptr, align 8
  %5 = alloca i64, align 8
  store i32 %0, ptr %3, align 4
  store ptr %1, ptr %4, align 8
  %6 = load ptr, ptr %4, align 8
  store i8 0, ptr %6, align 1
  store i64 0, ptr %5, align 8
  br label %7

7:                                                ; preds = %22, %2
  %8 = load i64, ptr %5, align 8
  %9 = load i64, ptr @H5L_table_used_g, align 8
  %10 = icmp ult i64 %8, %9
  br i1 %10, label %11, label %25

11:                                               ; preds = %7
  %12 = load ptr, ptr @H5L_table_g, align 8
  %13 = load i64, ptr %5, align 8
  %14 = getelementptr inbounds %struct.H5L_class_t, ptr %12, i64 %13
  %15 = getelementptr inbounds %struct.H5L_class_t, ptr %14, i32 0, i32 1
  %16 = load i32, ptr %15, align 4
  %17 = load i32, ptr %3, align 4
  %18 = icmp eq i32 %16, %17
  br i1 %18, label %19, label %21

19:                                               ; preds = %11
  %20 = load ptr, ptr %4, align 8
  store i8 1, ptr %20, align 1
  br label %25

21:                                               ; preds = %11
  br label %22

22:                                               ; preds = %21
  %23 = load i64, ptr %5, align 8
  %24 = add i64 %23, 1
  store i64 %24, ptr %5, align 8
  br label %7

25:                                               ; preds = %19, %7
  ret i32 0
}