; Function Attrs: nofree norecurse nosync nounwind memory(read, argmem: readwrite, inaccessiblemem: none) uwtable
define noundef i32 @H5L_is_registered(i32 noundef %0, ptr nocapture noundef writeonly %1) local_unnamed_addr #3 {
  store i8 0, ptr %1, align 1
  %3 = load i64, ptr @H5L_table_used_g, align 8
  %.not = icmp eq i64 %3, 0
  br i1 %.not, label %.loopexit, label %.lr.ph

.lr.ph:                                           ; preds = %2
  %4 = load ptr, ptr @H5L_table_g, align 8
  br label %7

5:                                                ; preds = %7
  %6 = add nuw i64 %.05, 1
  %exitcond.not = icmp eq i64 %6, %3
  br i1 %exitcond.not, label %.loopexit, label %7

7:                                                ; preds = %.lr.ph, %5
  %.05 = phi i64 [ 0, %.lr.ph ], [ %6, %5 ]
  %8 = getelementptr inbounds %struct.H5L_class_t, ptr %4, i64 %.05, i32 1
  %9 = load i32, ptr %8, align 4
  %10 = icmp eq i32 %9, %0
  br i1 %10, label %11, label %5

11:                                               ; preds = %7
  store i8 1, ptr %1, align 1
  br label %.loopexit

.loopexit:                                        ; preds = %5, %2, %11
  ret i32 0
}